target datalayout = "e-m:e-p270:32:32-p271:32:32-p272:64:64-i64:64-i128:128-f80:128-n8:16:32:64-S128"
target triple = "x86_64-pc-linux-gnu"

%struct.Matrix = type { float, float, float, float, float, float, float, float, float, float, float, float, float, float, float, float }
%struct.Point = type { i32, i32 }
%struct.Size = type { i32, i32 }
%struct.PlatformData = type { ptr }
%struct.anon.6 = type { ptr, i32, i8, i8, i8, i8, i8, i8, %struct.Point, %struct.Point, %struct.Size, %struct.Size, %struct.Size, %struct.Size, %struct.Size, %struct.Point, %struct.Size, %struct.Size, %struct.Matrix, ptr, i32 }

@platform = internal global %struct.PlatformData zeroinitializer, align 8
@.str.119 = private unnamed_addr constant [85 x i8] c"WINDOW: Framebuffer transparency can only be configured before window initialization\00", align 1
@.str.120 = private unnamed_addr constant [69 x i8] c"WINDOW: High DPI can only be configured before window initialization\00", align 1
@.str.121 = private unnamed_addr constant [65 x i8] c"WINDOW: MSAA can only be configured before window initialization\00", align 1
@.str.122 = private unnamed_addr constant [73 x i8] c"RPI: Interlaced mode can only be configured before window initialization\00", align 1

; Function Attrs: nounwind uwtable
define void @MaximizeWindow() #0 {
  %1 = load ptr, ptr @platform, align 8
  %2 = call i32 @glfwGetWindowAttrib(ptr noundef %1, i32 noundef 131075)
  %3 = icmp eq i32 %2, 1
  br i1 %3, label %4, label %8

4:                                                ; preds = %0
  %5 = load ptr, ptr @platform, align 8
  call void @glfwMaximizeWindow(ptr noundef %5)
  %6 = load i32, ptr getelementptr inbounds nuw (%struct.anon.6, ptr @CORE, i32 0, i32 1), align 8
  %7 = or i32 %6, 1024
  store i32 %7, ptr getelementptr inbounds nuw (%struct.anon.6, ptr @CORE, i32 0, i32 1), align 8
  br label %8

8:                                                ; preds = %4, %0
  ret void
}

; Function Attrs: nounwind uwtable
define void @MinimizeWindow() #0 {
  %1 = load ptr, ptr @platform, align 8
  call void @glfwIconifyWindow(ptr noundef %1)
  ret void
}

; Function Attrs: nounwind uwtable
define void @SetWindowState(i32 noundef %0) #0 {
  %2 = alloca i32, align 4
  store i32 %0, ptr %2, align 4
  %3 = load i32, ptr getelementptr inbounds nuw (%struct.anon.6, ptr @CORE, i32 0, i32 1), align 8
  %4 = and i32 %3, 64
  %5 = load i32, ptr %2, align 4
  %6 = and i32 %5, 64
  %7 = icmp ne i32 %4, %6
  br i1 %7, label %8, label %15

8:                                                ; preds = %1
  %9 = load i32, ptr %2, align 4
  %10 = and i32 %9, 64
  %11 = icmp ugt i32 %10, 0
  br i1 %11, label %12, label %15

12:                                               ; preds = %8
  call void @glfwSwapInterval(i32 noundef 1)
  %13 = load i32, ptr getelementptr inbounds nuw (%struct.anon.6, ptr @CORE, i32 0, i32 1), align 8
  %14 = or i32 %13, 64
  store i32 %14, ptr getelementptr inbounds nuw (%struct.anon.6, ptr @CORE, i32 0, i32 1), align 8
  br label %15

15:                                               ; preds = %12, %8, %1
  %16 = load i32, ptr getelementptr inbounds nuw (%struct.anon.6, ptr @CORE, i32 0, i32 1), align 8
  %17 = and i32 %16, 32768
  %18 = load i32, ptr %2, align 4
  %19 = and i32 %18, 32768
  %20 = icmp ne i32 %17, %19
  br i1 %20, label %21, label %26

21:                                               ; preds = %15
  %22 = load i32, ptr %2, align 4
  %23 = and i32 %22, 32768
  %24 = icmp ugt i32 %23, 0
  br i1 %24, label %25, label %26

25:                                               ; preds = %21
  call void @ToggleBorderlessWindowed()
  br label %26

26:                                               ; preds = %25, %21, %15
  %27 = load i32, ptr getelementptr inbounds nuw (%struct.anon.6, ptr @CORE, i32 0, i32 1), align 8
  %28 = and i32 %27, 2
  %29 = load i32, ptr %2, align 4
  %30 = and i32 %29, 2
  %31 = icmp ne i32 %28, %30
  br i1 %31, label %32, label %37

32:                                               ; preds = %26
  %33 = load i32, ptr %2, align 4
  %34 = and i32 %33, 2
  %35 = icmp ugt i32 %34, 0
  br i1 %35, label %36, label %37

36:                                               ; preds = %32
  call void @ToggleFullscreen()
  br label %37

37:                                               ; preds = %36, %32, %26
  %38 = load i32, ptr getelementptr inbounds nuw (%struct.anon.6, ptr @CORE, i32 0, i32 1), align 8
  %39 = and i32 %38, 4
  %40 = load i32, ptr %2, align 4
  %41 = and i32 %40, 4
  %42 = icmp ne i32 %39, %41
  br i1 %42, label %43, label %51

43:                                               ; preds = %37
  %44 = load i32, ptr %2, align 4
  %45 = and i32 %44, 4
  %46 = icmp ugt i32 %45, 0
  br i1 %46, label %47, label %51

47:                                               ; preds = %43
  %48 = load ptr, ptr @platform, align 8
  call void @glfwSetWindowAttrib(ptr noundef %48, i32 noundef 131075, i32 noundef 1)
  %49 = load i32, ptr getelementptr inbounds nuw (%struct.anon.6, ptr @CORE, i32 0, i32 1), align 8
  %50 = or i32 %49, 4
  store i32 %50, ptr getelementptr inbounds nuw (%struct.anon.6, ptr @CORE, i32 0, i32 1), align 8
  br label %51

51:                                               ; preds = %47, %43, %37
  %52 = load i32, ptr getelementptr inbounds nuw (%struct.anon.6, ptr @CORE, i32 0, i32 1), align 8
  %53 = and i32 %52, 8
  %54 = load i32, ptr %2, align 4
  %55 = and i32 %54, 8
  %56 = icmp ne i32 %53, %55
  br i1 %56, label %57, label %65

57:                                               ; preds = %51
  %58 = load i32, ptr %2, align 4
  %59 = and i32 %58, 8
  %60 = icmp ne i32 %59, 0
  br i1 %60, label %61, label %65

61:                                               ; preds = %57
  %62 = load ptr, ptr @platform, align 8
  call void @glfwSetWindowAttrib(ptr noundef %62, i32 noundef 131077, i32 noundef 0)
  %63 = load i32, ptr getelementptr inbounds nuw (%struct.anon.6, ptr @CORE, i32 0, i32 1), align 8
  %64 = or i32 %63, 8
  store i32 %64, ptr getelementptr inbounds nuw (%struct.anon.6, ptr @CORE, i32 0, i32 1), align 8
  br label %65

65:                                               ; preds = %61, %57, %51
  %66 = load i32, ptr getelementptr inbounds nuw (%struct.anon.6, ptr @CORE, i32 0, i32 1), align 8
  %67 = and i32 %66, 128
  %68 = load i32, ptr %2, align 4
  %69 = and i32 %68, 128
  %70 = icmp ne i32 %67, %69
  br i1 %70, label %71, label %79

71:                                               ; preds = %65
  %72 = load i32, ptr %2, align 4
  %73 = and i32 %72, 128
  %74 = icmp ugt i32 %73, 0
  br i1 %74, label %75, label %79

75:                                               ; preds = %71
  %76 = load ptr, ptr @platform, align 8
  call void @glfwHideWindow(ptr noundef %76)
  %77 = load i32, ptr getelementptr inbounds nuw (%struct.anon.6, ptr @CORE, i32 0, i32 1), align 8
  %78 = or i32 %77, 128
  store i32 %78, ptr getelementptr inbounds nuw (%struct.anon.6, ptr @CORE, i32 0, i32 1), align 8
  br label %79

79:                                               ; preds = %75, %71, %65
  %80 = load i32, ptr getelementptr inbounds nuw (%struct.anon.6, ptr @CORE, i32 0, i32 1), align 8
  %81 = and i32 %80, 512
  %82 = load i32, ptr %2, align 4
  %83 = and i32 %82, 512
  %84 = icmp ne i32 %81, %83
  br i1 %84, label %85, label %90

85:                                               ; preds = %79
  %86 = load i32, ptr %2, align 4
  %87 = and i32 %86, 512
  %88 = icmp ugt i32 %87, 0
  br i1 %88, label %89, label %90

89:                                               ; preds = %85
  call void @MinimizeWindow()
  br label %90

90:                                               ; preds = %89, %85, %79
  %91 = load i32, ptr getelementptr inbounds nuw (%struct.anon.6, ptr @CORE, i32 0, i32 1), align 8
  %92 = and i32 %91, 1024
  %93 = load i32, ptr %2, align 4
  %94 = and i32 %93, 1024
  %95 = icmp ne i32 %92, %94
  br i1 %95, label %96, label %101

96:                                               ; preds = %90
  %97 = load i32, ptr %2, align 4
  %98 = and i32 %97, 1024
  %99 = icmp ugt i32 %98, 0
  br i1 %99, label %100, label %101

100:                                              ; preds = %96
  call void @MaximizeWindow()
  br label %101

101:                                              ; preds = %100, %96, %90
  %102 = load i32, ptr getelementptr inbounds nuw (%struct.anon.6, ptr @CORE, i32 0, i32 1), align 8
  %103 = and i32 %102, 2048
  %104 = load i32, ptr %2, align 4
  %105 = and i32 %104, 2048
  %106 = icmp ne i32 %103, %105
  br i1 %106, label %107, label %115

107:                                              ; preds = %101
  %108 = load i32, ptr %2, align 4
  %109 = and i32 %108, 2048
  %110 = icmp ugt i32 %109, 0
  br i1 %110, label %111, label %115

111:                                              ; preds = %107
  %112 = load ptr, ptr @platform, align 8
  call void @glfwSetWindowAttrib(ptr noundef %112, i32 noundef 131084, i32 noundef 0)
  %113 = load i32, ptr getelementptr inbounds nuw (%struct.anon.6, ptr @CORE, i32 0, i32 1), align 8
  %114 = or i32 %113, 2048
  store i32 %114, ptr getelementptr inbounds nuw (%struct.anon.6, ptr @CORE, i32 0, i32 1), align 8
  br label %115

115:                                              ; preds = %111, %107, %101
  %116 = load i32, ptr getelementptr inbounds nuw (%struct.anon.6, ptr @CORE, i32 0, i32 1), align 8
  %117 = and i32 %116, 4096
  %118 = load i32, ptr %2, align 4
  %119 = and i32 %118, 4096
  %120 = icmp ne i32 %117, %119
  br i1 %120, label %121, label %129

121:                                              ; preds = %115
  %122 = load i32, ptr %2, align 4
  %123 = and i32 %122, 4096
  %124 = icmp ugt i32 %123, 0
  br i1 %124, label %125, label %129

125:                                              ; preds = %121
  %126 = load ptr, ptr @platform, align 8
  call void @glfwSetWindowAttrib(ptr noundef %126, i32 noundef 131079, i32 noundef 1)
  %127 = load i32, ptr getelementptr inbounds nuw (%struct.anon.6, ptr @CORE, i32 0, i32 1), align 8
  %128 = or i32 %127, 4096
  store i32 %128, ptr getelementptr inbounds nuw (%struct.anon.6, ptr @CORE, i32 0, i32 1), align 8
  br label %129

129:                                              ; preds = %125, %121, %115
  %130 = load i32, ptr getelementptr inbounds nuw (%struct.anon.6, ptr @CORE, i32 0, i32 1), align 8
  %131 = and i32 %130, 256
  %132 = load i32, ptr %2, align 4
  %133 = and i32 %132, 256
  %134 = icmp ne i32 %131, %133
  br i1 %134, label %135, label %142

135:                                              ; preds = %129
  %136 = load i32, ptr %2, align 4
  %137 = and i32 %136, 256
  %138 = icmp ugt i32 %137, 0
  br i1 %138, label %139, label %142

139:                                              ; preds = %135
  %140 = load i32, ptr getelementptr inbounds nuw (%struct.anon.6, ptr @CORE, i32 0, i32 1), align 8
  %141 = or i32 %140, 256
  store i32 %141, ptr getelementptr inbounds nuw (%struct.anon.6, ptr @CORE, i32 0, i32 1), align 8
  br label %142

142:                                              ; preds = %139, %135, %129
  %143 = load i32, ptr getelementptr inbounds nuw (%struct.anon.6, ptr @CORE, i32 0, i32 1), align 8
  %144 = and i32 %143, 16
  %145 = load i32, ptr %2, align 4
  %146 = and i32 %145, 16
  %147 = icmp ne i32 %144, %146
  br i1 %147, label %148, label %153

148:                                              ; preds = %142
  %149 = load i32, ptr %2, align 4
  %150 = and i32 %149, 16
  %151 = icmp ugt i32 %150, 0
  br i1 %151, label %152, label %153

152:                                              ; preds = %148
  call void (i32, ptr, ...) @TraceLog(i32 noundef 4, ptr noundef @.str.119)
  br label %153

153:                                              ; preds = %152, %148, %142
  %154 = load i32, ptr getelementptr inbounds nuw (%struct.anon.6, ptr @CORE, i32 0, i32 1), align 8
  %155 = and i32 %154, 8192
  %156 = load i32, ptr %2, align 4
  %157 = and i32 %156, 8192
  %158 = icmp ne i32 %155, %157
  br i1 %158, label %159, label %164

159:                                              ; preds = %153
  %160 = load i32, ptr %2, align 4
  %161 = and i32 %160, 8192
  %162 = icmp ugt i32 %161, 0
  br i1 %162, label %163, label %164

163:                                              ; preds = %159
  call void (i32, ptr, ...) @TraceLog(i32 noundef 4, ptr noundef @.str.120)
  br label %164

164:                                              ; preds = %163, %159, %153
  %165 = load i32, ptr getelementptr inbounds nuw (%struct.anon.6, ptr @CORE, i32 0, i32 1), align 8
  %166 = and i32 %165, 16384
  %167 = load i32, ptr %2, align 4
  %168 = and i32 %167, 16384
  %169 = icmp ne i32 %166, %168
  br i1 %169, label %170, label %178

170:                                              ; preds = %164
  %171 = load i32, ptr %2, align 4
  %172 = and i32 %171, 16384
  %173 = icmp ugt i32 %172, 0
  br i1 %173, label %174, label %178

174:                                              ; preds = %170
  %175 = load ptr, ptr @platform, align 8
  call void @glfwSetWindowAttrib(ptr noundef %175, i32 noundef 131085, i32 noundef 1)
  %176 = load i32, ptr getelementptr inbounds nuw (%struct.anon.6, ptr @CORE, i32 0, i32 1), align 8
  %177 = or i32 %176, 16384
  store i32 %177, ptr getelementptr inbounds nuw (%struct.anon.6, ptr @CORE, i32 0, i32 1), align 8
  br label %178

178:                                              ; preds = %174, %170, %164
  %179 = load i32, ptr getelementptr inbounds nuw (%struct.anon.6, ptr @CORE, i32 0, i32 1), align 8
  %180 = and i32 %179, 32
  %181 = load i32, ptr %2, align 4
  %182 = and i32 %181, 32
  %183 = icmp ne i32 %180, %182
  br i1 %183, label %184, label %189

184:                                              ; preds = %178
  %185 = load i32, ptr %2, align 4
  %186 = and i32 %185, 32
  %187 = icmp ugt i32 %186, 0
  br i1 %187, label %188, label %189

188:                                              ; preds = %184
  call void (i32, ptr, ...) @TraceLog(i32 noundef 4, ptr noundef @.str.121)
  br label %189

189:                                              ; preds = %188, %184, %178
  %190 = load i32, ptr getelementptr inbounds nuw (%struct.anon.6, ptr @CORE, i32 0, i32 1), align 8
  %191 = and i32 %190, 65536
  %192 = load i32, ptr %2, align 4
  %193 = and i32 %192, 65536
  %194 = icmp ne i32 %191, %193
  br i1 %194, label %195, label %200

195:                                              ; preds = %189
  %196 = load i32, ptr %2, align 4
  %197 = and i32 %196, 65536
  %198 = icmp ugt i32 %197, 0
  br i1 %198, label %199, label %200

199:                                              ; preds = %195
  call void (i32, ptr, ...) @TraceLog(i32 noundef 4, ptr noundef @.str.122)
  br label %200

200:                                              ; preds = %199, %195, %189
  ret void
}