; Function Attrs: nounwind uwtable
define void @SetWindowState(i32 noundef %0) local_unnamed_addr #0 {
  %2 = load i32, ptr getelementptr inbounds nuw (i8, ptr @CORE, i64 8), align 8
  %3 = and i32 %2, 64
  %4 = xor i32 %3, 64
  %5 = and i32 %4, %0
  %or.cond = icmp eq i32 %5, 0
  br i1 %or.cond, label %9, label %6

6:                                                ; preds = %1
  tail call void @glfwSwapInterval(i32 noundef 1) #56
  %7 = load i32, ptr getelementptr inbounds nuw (i8, ptr @CORE, i64 8), align 8
  %8 = or i32 %7, 64
  store i32 %8, ptr getelementptr inbounds nuw (i8, ptr @CORE, i64 8), align 8
  br label %9

9:                                                ; preds = %6, %1
  %10 = phi i32 [ %8, %6 ], [ %2, %1 ]
  %11 = and i32 %10, 32768
  %12 = xor i32 %11, 32768
  %13 = and i32 %12, %0
  %or.cond78 = icmp eq i32 %13, 0
  br i1 %or.cond78, label %15, label %14

14:                                               ; preds = %9
  tail call void @ToggleBorderlessWindowed()
  %.pre = load i32, ptr getelementptr inbounds nuw (i8, ptr @CORE, i64 8), align 8
  br label %15

15:                                               ; preds = %14, %9
  %16 = phi i32 [ %.pre, %14 ], [ %10, %9 ]
  %17 = and i32 %16, 2
  %18 = xor i32 %17, 2
  %19 = and i32 %18, %0
  %or.cond79 = icmp eq i32 %19, 0
  br i1 %or.cond79, label %21, label %20

20:                                               ; preds = %15
  tail call void @ToggleFullscreen()
  %.pre93 = load i32, ptr getelementptr inbounds nuw (i8, ptr @CORE, i64 8), align 8
  br label %21

21:                                               ; preds = %20, %15
  %22 = phi i32 [ %.pre93, %20 ], [ %16, %15 ]
  %23 = and i32 %22, 4
  %24 = xor i32 %23, 4
  %25 = and i32 %24, %0
  %or.cond80 = icmp eq i32 %25, 0
  br i1 %or.cond80, label %30, label %26

26:                                               ; preds = %21
  %27 = load ptr, ptr @platform.0, align 8
  tail call void @glfwSetWindowAttrib(ptr noundef %27, i32 noundef 131075, i32 noundef 1) #56
  %28 = load i32, ptr getelementptr inbounds nuw (i8, ptr @CORE, i64 8), align 8
  %29 = or i32 %28, 4
  store i32 %29, ptr getelementptr inbounds nuw (i8, ptr @CORE, i64 8), align 8
  br label %30

30:                                               ; preds = %26, %21
  %31 = phi i32 [ %29, %26 ], [ %22, %21 ]
  %32 = and i32 %31, 8
  %33 = xor i32 %32, 8
  %34 = and i32 %33, %0
  %or.cond81 = icmp eq i32 %34, 0
  br i1 %or.cond81, label %39, label %35

35:                                               ; preds = %30
  %36 = load ptr, ptr @platform.0, align 8
  tail call void @glfwSetWindowAttrib(ptr noundef %36, i32 noundef 131077, i32 noundef 0) #56
  %37 = load i32, ptr getelementptr inbounds nuw (i8, ptr @CORE, i64 8), align 8
  %38 = or i32 %37, 8
  store i32 %38, ptr getelementptr inbounds nuw (i8, ptr @CORE, i64 8), align 8
  br label %39

39:                                               ; preds = %35, %30
  %40 = phi i32 [ %38, %35 ], [ %31, %30 ]
  %41 = and i32 %40, 128
  %42 = xor i32 %41, 128
  %43 = and i32 %42, %0
  %or.cond82 = icmp eq i32 %43, 0
  br i1 %or.cond82, label %48, label %44

44:                                               ; preds = %39
  %45 = load ptr, ptr @platform.0, align 8
  tail call void @glfwHideWindow(ptr noundef %45) #56
  %46 = load i32, ptr getelementptr inbounds nuw (i8, ptr @CORE, i64 8), align 8
  %47 = or i32 %46, 128
  store i32 %47, ptr getelementptr inbounds nuw (i8, ptr @CORE, i64 8), align 8
  br label %48

48:                                               ; preds = %44, %39
  %49 = phi i32 [ %47, %44 ], [ %40, %39 ]
  %50 = and i32 %49, 512
  %51 = xor i32 %50, 512
  %52 = and i32 %51, %0
  %or.cond83 = icmp eq i32 %52, 0
  br i1 %or.cond83, label %55, label %53

53:                                               ; preds = %48
  %54 = load ptr, ptr @platform.0, align 8
  tail call void @glfwIconifyWindow(ptr noundef %54) #56
  %.pre94 = load i32, ptr getelementptr inbounds nuw (i8, ptr @CORE, i64 8), align 8
  br label %55

55:                                               ; preds = %53, %48
  %56 = phi i32 [ %.pre94, %53 ], [ %49, %48 ]
  %57 = and i32 %56, 1024
  %58 = xor i32 %57, 1024
  %59 = and i32 %58, %0
  %or.cond84 = icmp eq i32 %59, 0
  br i1 %or.cond84, label %MaximizeWindow.exit, label %60

60:                                               ; preds = %55
  %61 = load ptr, ptr @platform.0, align 8
  %62 = tail call i32 @glfwGetWindowAttrib(ptr noundef %61, i32 noundef 131075) #56
  %63 = icmp eq i32 %62, 1
  br i1 %63, label %64, label %.MaximizeWindow.exit_crit_edge

.MaximizeWindow.exit_crit_edge:                   ; preds = %60
  %.pre95 = load i32, ptr getelementptr inbounds nuw (i8, ptr @CORE, i64 8), align 8
  br label %MaximizeWindow.exit

64:                                               ; preds = %60
  %65 = load ptr, ptr @platform.0, align 8
  tail call void @glfwMaximizeWindow(ptr noundef %65) #56
  %66 = load i32, ptr getelementptr inbounds nuw (i8, ptr @CORE, i64 8), align 8
  %67 = or i32 %66, 1024
  store i32 %67, ptr getelementptr inbounds nuw (i8, ptr @CORE, i64 8), align 8
  br label %MaximizeWindow.exit

MaximizeWindow.exit:                              ; preds = %.MaximizeWindow.exit_crit_edge, %64, %55
  %68 = phi i32 [ %.pre95, %.MaximizeWindow.exit_crit_edge ], [ %67, %64 ], [ %56, %55 ]
  %69 = and i32 %68, 2048
  %70 = xor i32 %69, 2048
  %71 = and i32 %70, %0
  %or.cond85 = icmp eq i32 %71, 0
  br i1 %or.cond85, label %76, label %72

72:                                               ; preds = %MaximizeWindow.exit
  %73 = load ptr, ptr @platform.0, align 8
  tail call void @glfwSetWindowAttrib(ptr noundef %73, i32 noundef 131084, i32 noundef 0) #56
  %74 = load i32, ptr getelementptr inbounds nuw (i8, ptr @CORE, i64 8), align 8
  %75 = or i32 %74, 2048
  store i32 %75, ptr getelementptr inbounds nuw (i8, ptr @CORE, i64 8), align 8
  br label %76

76:                                               ; preds = %72, %MaximizeWindow.exit
  %77 = phi i32 [ %75, %72 ], [ %68, %MaximizeWindow.exit ]
  %78 = and i32 %77, 4096
  %79 = xor i32 %78, 4096
  %80 = and i32 %79, %0
  %or.cond86 = icmp eq i32 %80, 0
  br i1 %or.cond86, label %85, label %81

81:                                               ; preds = %76
  %82 = load ptr, ptr @platform.0, align 8
  tail call void @glfwSetWindowAttrib(ptr noundef %82, i32 noundef 131079, i32 noundef 1) #56
  %83 = load i32, ptr getelementptr inbounds nuw (i8, ptr @CORE, i64 8), align 8
  %84 = or i32 %83, 4096
  store i32 %84, ptr getelementptr inbounds nuw (i8, ptr @CORE, i64 8), align 8
  br label %85

85:                                               ; preds = %81, %76
  %86 = phi i32 [ %84, %81 ], [ %77, %76 ]
  %87 = and i32 %86, 256
  %88 = xor i32 %87, 256
  %89 = and i32 %88, %0
  %or.cond87 = icmp eq i32 %89, 0
  br i1 %or.cond87, label %92, label %90

90:                                               ; preds = %85
  %91 = or i32 %86, 256
  store i32 %91, ptr getelementptr inbounds nuw (i8, ptr @CORE, i64 8), align 8
  br label %92

92:                                               ; preds = %90, %85
  %93 = phi i32 [ %91, %90 ], [ %86, %85 ]
  %94 = and i32 %93, 16
  %95 = xor i32 %94, 16
  %96 = and i32 %95, %0
  %or.cond88 = icmp eq i32 %96, 0
  br i1 %or.cond88, label %98, label %97

97:                                               ; preds = %92
  tail call void (i32, ptr, ...) @TraceLog(i32 noundef 4, ptr noundef nonnull @.str.119) #56
  %.pre96 = load i32, ptr getelementptr inbounds nuw (i8, ptr @CORE, i64 8), align 8
  br label %98

98:                                               ; preds = %97, %92
  %99 = phi i32 [ %.pre96, %97 ], [ %93, %92 ]
  %100 = and i32 %99, 8192
  %101 = xor i32 %100, 8192
  %102 = and i32 %101, %0
  %or.cond89 = icmp eq i32 %102, 0
  br i1 %or.cond89, label %104, label %103

103:                                              ; preds = %98
  tail call void (i32, ptr, ...) @TraceLog(i32 noundef 4, ptr noundef nonnull @.str.120) #56
  %.pre97 = load i32, ptr getelementptr inbounds nuw (i8, ptr @CORE, i64 8), align 8
  br label %104

104:                                              ; preds = %103, %98
  %105 = phi i32 [ %.pre97, %103 ], [ %99, %98 ]
  %106 = and i32 %105, 16384
  %107 = xor i32 %106, 16384
  %108 = and i32 %107, %0
  %or.cond90 = icmp eq i32 %108, 0
  br i1 %or.cond90, label %113, label %109

109:                                              ; preds = %104
  %110 = load ptr, ptr @platform.0, align 8
  tail call void @glfwSetWindowAttrib(ptr noundef %110, i32 noundef 131085, i32 noundef 1) #56
  %111 = load i32, ptr getelementptr inbounds nuw (i8, ptr @CORE, i64 8), align 8
  %112 = or i32 %111, 16384
  store i32 %112, ptr getelementptr inbounds nuw (i8, ptr @CORE, i64 8), align 8
  br label %113

113:                                              ; preds = %109, %104
  %114 = phi i32 [ %112, %109 ], [ %105, %104 ]
  %115 = and i32 %114, 32
  %116 = xor i32 %115, 32
  %117 = and i32 %116, %0
  %or.cond91 = icmp eq i32 %117, 0
  br i1 %or.cond91, label %119, label %118

118:                                              ; preds = %113
  tail call void (i32, ptr, ...) @TraceLog(i32 noundef 4, ptr noundef nonnull @.str.121) #56
  %.pre98 = load i32, ptr getelementptr inbounds nuw (i8, ptr @CORE, i64 8), align 8
  br label %119

119:                                              ; preds = %118, %113
  %120 = phi i32 [ %.pre98, %118 ], [ %114, %113 ]
  %121 = and i32 %120, 65536
  %122 = xor i32 %121, 65536
  %123 = and i32 %122, %0
  %or.cond92 = icmp eq i32 %123, 0
  br i1 %or.cond92, label %125, label %124

124:                                              ; preds = %119
  tail call void (i32, ptr, ...) @TraceLog(i32 noundef 4, ptr noundef nonnull @.str.122) #56
  br label %125

125:                                              ; preds = %124, %119
  ret void
}